; ModuleID = '2/429.c'
source_filename = "2/429.c"
target datalayout = "e-m:e-p270:32:32-p271:32:32-p272:64:64-i64:64-f80:128-n8:16:32:64-S128"
target triple = "x86_64-pc-linux-gnu"

@.str = private unnamed_addr constant [3 x i8] c"%d\00", align 1
@.str.1 = private unnamed_addr constant [6 x i8] c"%d %s\00", align 1
@.str.2 = private unnamed_addr constant [7 x i8] c"%c\0A%d\0A\00", align 1
@.str.3 = private unnamed_addr constant [4 x i8] c"%d\0A\00", align 1

; Function Attrs: noinline nounwind uwtable
define dso_local void @main() #0 {
  %1 = alloca i32, align 4
  %2 = alloca i32, align 4
  %3 = alloca i32, align 4
  %4 = alloca i32, align 4
  %5 = alloca i32, align 4
  %6 = alloca i32, align 4
  %7 = alloca i32, align 4
  %8 = alloca i32, align 4
  %9 = alloca i32, align 4
  %10 = alloca i32, align 4
  %11 = alloca [1000 x i32], align 16
  %12 = alloca [1000 x i32], align 16
  %13 = alloca [26 x i32], align 16
  %14 = alloca [1000 x [30 x i8]], align 16
  %15 = alloca i8, align 1
  store i32 0, i32* %9, align 4
  %16 = bitcast [26 x i32]* %13 to i8*
  call void @llvm.memset.p0i8.i64(i8* align 16 %16, i8 0, i64 104, i1 false)
  %17 = call i32 (i8*, ...) @__isoc99_scanf(i8* getelementptr inbounds ([3 x i8], [3 x i8]* @.str, i64 0, i64 0), i32* %1)
  store i32 0, i32* %3, align 4
  br label %18

18:                                               ; preds = %31, %0
  %19 = load i32, i32* %3, align 4
  %20 = load i32, i32* %1, align 4
  %21 = icmp slt i32 %19, %20
  br i1 %21, label %22, label %34

22:                                               ; preds = %18
  %23 = load i32, i32* %3, align 4
  %24 = sext i32 %23 to i64
  %25 = getelementptr inbounds [1000 x i32], [1000 x i32]* %11, i64 0, i64 %24
  %26 = load i32, i32* %3, align 4
  %27 = sext i32 %26 to i64
  %28 = getelementptr inbounds [1000 x [30 x i8]], [1000 x [30 x i8]]* %14, i64 0, i64 %27
  %29 = getelementptr inbounds [30 x i8], [30 x i8]* %28, i64 0, i64 0
  %30 = call i32 (i8*, ...) @__isoc99_scanf(i8* getelementptr inbounds ([6 x i8], [6 x i8]* @.str.1, i64 0, i64 0), i32* %25, i8* %29)
  br label %31

31:                                               ; preds = %22
  %32 = load i32, i32* %3, align 4
  %33 = add nsw i32 %32, 1
  store i32 %33, i32* %3, align 4
  br label %18

34:                                               ; preds = %18
  store i32 0, i32* %7, align 4
  store i32 65, i32* %4, align 4
  br label %35

35:                                               ; preds = %80, %34
  %36 = load i32, i32* %4, align 4
  %37 = icmp sle i32 %36, 90
  br i1 %37, label %38, label %85

38:                                               ; preds = %35
  store i32 0, i32* %5, align 4
  br label %39

39:                                               ; preds = %76, %38
  %40 = load i32, i32* %5, align 4
  %41 = load i32, i32* %1, align 4
  %42 = icmp slt i32 %40, %41
  br i1 %42, label %43, label %79

43:                                               ; preds = %39
  store i32 0, i32* %6, align 4
  br label %44

44:                                               ; preds = %72, %43
  %45 = load i32, i32* %5, align 4
  %46 = sext i32 %45 to i64
  %47 = getelementptr inbounds [1000 x [30 x i8]], [1000 x [30 x i8]]* %14, i64 0, i64 %46
  %48 = load i32, i32* %6, align 4
  %49 = sext i32 %48 to i64
  %50 = getelementptr inbounds [30 x i8], [30 x i8]* %47, i64 0, i64 %49
  %51 = load i8, i8* %50, align 1
  %52 = sext i8 %51 to i32
  %53 = icmp ne i32 %52, 0
  br i1 %53, label %54, label %75

54:                                               ; preds = %44
  %55 = load i32, i32* %5, align 4
  %56 = sext i32 %55 to i64
  %57 = getelementptr inbounds [1000 x [30 x i8]], [1000 x [30 x i8]]* %14, i64 0, i64 %56
  %58 = load i32, i32* %6, align 4
  %59 = sext i32 %58 to i64
  %60 = getelementptr inbounds [30 x i8], [30 x i8]* %57, i64 0, i64 %59
  %61 = load i8, i8* %60, align 1
  %62 = sext i8 %61 to i32
  %63 = load i32, i32* %4, align 4
  %64 = icmp eq i32 %62, %63
  br i1 %64, label %65, label %71

65:                                               ; preds = %54
  %66 = load i32, i32* %7, align 4
  %67 = sext i32 %66 to i64
  %68 = getelementptr inbounds [26 x i32], [26 x i32]* %13, i64 0, i64 %67
  %69 = load i32, i32* %68, align 4
  %70 = add nsw i32 %69, 1
  store i32 %70, i32* %68, align 4
  br label %71

71:                                               ; preds = %65, %54
  br label %72

72:                                               ; preds = %71
  %73 = load i32, i32* %6, align 4
  %74 = add nsw i32 %73, 1
  store i32 %74, i32* %6, align 4
  br label %44

75:                                               ; preds = %44
  br label %76

76:                                               ; preds = %75
  %77 = load i32, i32* %5, align 4
  %78 = add nsw i32 %77, 1
  store i32 %78, i32* %5, align 4
  br label %39

79:                                               ; preds = %39
  br label %80

80:                                               ; preds = %79
  %81 = load i32, i32* %4, align 4
  %82 = add nsw i32 %81, 1
  store i32 %82, i32* %4, align 4
  %83 = load i32, i32* %7, align 4
  %84 = add nsw i32 %83, 1
  store i32 %84, i32* %7, align 4
  br label %35

85:                                               ; preds = %35
  store i32 0, i32* %8, align 4
  br label %86

86:                                               ; preds = %103, %85
  %87 = load i32, i32* %8, align 4
  %88 = icmp slt i32 %87, 26
  br i1 %88, label %89, label %106

89:                                               ; preds = %86
  %90 = load i32, i32* %8, align 4
  %91 = sext i32 %90 to i64
  %92 = getelementptr inbounds [26 x i32], [26 x i32]* %13, i64 0, i64 %91
  %93 = load i32, i32* %92, align 4
  %94 = load i32, i32* %9, align 4
  %95 = icmp sgt i32 %93, %94
  br i1 %95, label %96, label %102

96:                                               ; preds = %89
  %97 = load i32, i32* %8, align 4
  %98 = sext i32 %97 to i64
  %99 = getelementptr inbounds [26 x i32], [26 x i32]* %13, i64 0, i64 %98
  %100 = load i32, i32* %99, align 4
  store i32 %100, i32* %9, align 4
  %101 = load i32, i32* %8, align 4
  store i32 %101, i32* %10, align 4
  br label %102

102:                                              ; preds = %96, %89
  br label %103

103:                                              ; preds = %102
  %104 = load i32, i32* %8, align 4
  %105 = add nsw i32 %104, 1
  store i32 %105, i32* %8, align 4
  br label %86

106:                                              ; preds = %86
  %107 = load i32, i32* %10, align 4
  %108 = add nsw i32 %107, 65
  %109 = load i32, i32* %9, align 4
  %110 = call i32 (i8*, ...) @printf(i8* getelementptr inbounds ([7 x i8], [7 x i8]* @.str.2, i64 0, i64 0), i32 %108, i32 %109)
  %111 = load i32, i32* %10, align 4
  %112 = add nsw i32 %111, 65
  %113 = trunc i32 %112 to i8
  store i8 %113, i8* %15, align 1
  store i32 0, i32* %3, align 4
  br label %114

114:                                              ; preds = %152, %106
  %115 = load i32, i32* %3, align 4
  %116 = load i32, i32* %1, align 4
  %117 = icmp slt i32 %115, %116
  br i1 %117, label %118, label %155

118:                                              ; preds = %114
  store i32 0, i32* %4, align 4
  br label %119

119:                                              ; preds = %148, %118
  %120 = load i32, i32* %3, align 4
  %121 = sext i32 %120 to i64
  %122 = getelementptr inbounds [1000 x [30 x i8]], [1000 x [30 x i8]]* %14, i64 0, i64 %121
  %123 = load i32, i32* %4, align 4
  %124 = sext i32 %123 to i64
  %125 = getelementptr inbounds [30 x i8], [30 x i8]* %122, i64 0, i64 %124
  %126 = load i8, i8* %125, align 1
  %127 = sext i8 %126 to i32
  %128 = icmp ne i32 %127, 0
  br i1 %128, label %129, label %151

129:                                              ; preds = %119
  %130 = load i32, i32* %3, align 4
  %131 = sext i32 %130 to i64
  %132 = getelementptr inbounds [1000 x [30 x i8]], [1000 x [30 x i8]]* %14, i64 0, i64 %131
  %133 = load i32, i32* %4, align 4
  %134 = sext i32 %133 to i64
  %135 = getelementptr inbounds [30 x i8], [30 x i8]* %132, i64 0, i64 %134
  %136 = load i8, i8* %135, align 1
  %137 = sext i8 %136 to i32
  %138 = load i8, i8* %15, align 1
  %139 = sext i8 %138 to i32
  %140 = icmp eq i32 %137, %139
  br i1 %140, label %141, label %147

141:                                              ; preds = %129
  %142 = load i32, i32* %3, align 4
  %143 = sext i32 %142 to i64
  %144 = getelementptr inbounds [1000 x i32], [1000 x i32]* %11, i64 0, i64 %143
  %145 = load i32, i32* %144, align 4
  %146 = call i32 (i8*, ...) @printf(i8* getelementptr inbounds ([4 x i8], [4 x i8]* @.str.3, i64 0, i64 0), i32 %145)
  br label %151

147:                                              ; preds = %129
  br label %148

148:                                              ; preds = %147
  %149 = load i32, i32* %4, align 4
  %150 = add nsw i32 %149, 1
  store i32 %150, i32* %4, align 4
  br label %119

151:                                              ; preds = %141, %119
  br label %152

152:                                              ; preds = %151
  %153 = load i32, i32* %3, align 4
  %154 = add nsw i32 %153, 1
  store i32 %154, i32* %3, align 4
  br label %114

155:                                              ; preds = %114
  ret void
}

; Function Attrs: argmemonly nounwind willreturn
declare void @llvm.memset.p0i8.i64(i8* nocapture writeonly, i8, i64, i1 immarg) #1

declare dso_local i32 @__isoc99_scanf(i8*, ...) #2

declare dso_local i32 @printf(i8*, ...) #2


!llvm.module.flags = !{!0}
!llvm.ident = !{!1}

!0 = !{i32 1, !"wchar_size", i32 4}
!1 = !{!"clang version 10.0.0-4ubuntu1 "}
